Certificate:
    Data:
        Version: 3 (0x2)
        Serial Number: 1 (0x1)
    Signature Algorithm: sha256WithRSAEncryption
        Issuer: C=DE, ST=Berlin, L=Berlin, O=BigchainDB GmbH, OU=ENG, CN=TEST-CA/emailAddress=dev@bigchaindb.com
        Validity
            Not Before: Jun  2 07:09:28 2017 GMT
            Not After : May 31 07:09:28 2027 GMT
        Subject: C=DE, ST=Berlin, L=Berlin, O=BigchainDB GmbH, OU=ENG, CN=test-mdb-ssl/emailAddress=dev@bigchaindb.com
        Subject Public Key Info:
            Public Key Algorithm: rsaEncryption
                Public-Key: (4096 bit)
                Modulus:
                    00:e4:71:43:91:f2:3a:26:4d:6d:61:f5:54:dd:a4:
                    a2:8b:e8:79:b7:44:94:9f:30:5d:86:d8:f5:9d:80:
                    cb:51:e8:c0:8c:9e:2f:fe:cb:9f:bb:f1:b5:97:47:
                    d1:9e:43:64:2b:f0:3f:99:30:1c:27:34:74:87:1e:
                    73:8f:86:66:89:0b:b9:64:05:8a:95:d7:81:da:fa:
                    b7:d0:4c:59:0e:1c:d7:1f:07:74:7d:38:9d:b0:6d:
                    02:a8:c3:63:f4:5d:d5:29:5b:df:8a:56:c5:51:29:
                    32:5b:ea:cc:ea:00:a0:04:e9:8a:f5:a0:e1:c3:77:
                    c9:3d:1b:99:fa:e8:bb:08:e5:98:bb:ec:5d:7e:d9:
                    7e:39:98:ab:16:cf:e6:e8:df:a9:6b:37:72:83:4d:
                    43:94:3e:99:39:ae:1f:5a:c9:51:71:30:5e:20:70:
                    c9:90:ff:ba:8b:6c:d9:5f:3d:df:03:d5:fe:f7:52:
                    ea:41:6d:4b:fe:6e:04:30:ef:a4:19:20:a8:fd:fb:
                    0c:72:76:2c:30:54:5d:f4:2b:e9:cd:96:3f:bb:e9:
                    6d:7e:79:8f:fe:06:6f:40:b1:42:a8:54:80:65:56:
                    50:af:c2:e2:68:e0:ac:22:90:00:ae:bc:6f:55:1a:
                    b7:ed:90:22:e8:c7:34:1e:4a:7d:d2:26:b0:35:16:
                    ec:30:45:cd:ac:f3:87:f6:8b:fe:84:8b:b3:9f:13:
                    08:f2:59:9f:3f:64:ee:20:a0:dc:87:8a:28:89:87:
                    1c:a1:91:63:81:01:66:43:7b:5f:5f:38:69:a7:f7:
                    ce:da:07:0b:7c:2c:87:df:9d:a5:12:db:b4:97:ed:
                    e9:2c:31:d5:14:cc:f0:f5:a4:6c:7e:59:4f:73:36:
                    eb:28:1c:be:69:98:1f:12:c1:e0:db:6f:f0:1a:62:
                    51:45:71:58:88:68:7e:06:42:cb:b3:31:85:53:90:
                    70:84:f4:08:18:d5:4e:07:8b:db:6f:d2:0f:ac:c4:
                    c2:52:a5:ed:07:b9:1b:1a:e9:22:4a:21:f8:1a:27:
                    9f:47:b5:ef:cb:24:3a:36:29:dc:68:fa:f1:9f:2e:
                    02:f8:8d:ab:25:6e:ba:3b:0a:0e:9e:c1:40:f4:56:
                    74:75:fc:b8:84:fa:bb:05:17:b7:b7:d8:36:02:40:
                    16:03:c9:75:a0:68:7e:e0:f4:c9:ae:fa:3d:0c:a3:
                    81:3b:e8:a2:84:dd:73:6e:d4:9f:e6:1c:db:d9:9c:
                    d6:c2:b9:fb:34:8f:f6:46:33:9e:29:bd:0d:11:33:
                    03:25:dc:1a:c7:44:00:76:83:16:5a:a5:d3:35:bb:
                    47:2d:9e:77:16:e0:b0:48:9b:dd:7c:20:56:56:1e:
                    1f:40:87
                Exponent: 65537 (0x10001)
        X509v3 extensions:
            X509v3 Basic Constraints: 
                CA:FALSE
            X509v3 Subject Key Identifier: 
                F5:2B:26:62:47:74:FC:75:6A:9E:76:8F:35:EB:23:64:BF:DD:18:3F
            X509v3 Authority Key Identifier: 
                keyid:97:C8:DC:C8:EE:AF:E2:70:C4:09:9B:19:50:8F:86:1D:2C:FF:6E:26
                DirName:/C=DE/ST=Berlin/L=Berlin/O=BigchainDB GmbH/OU=ENG/CN=TEST-CA/emailAddress=dev@bigchaindb.com
                serial:A4:C4:DF:DB:1A:DB:83:C7

            X509v3 Extended Key Usage: 
                TLS Web Server Authentication, TLS Web Client Authentication
            X509v3 Key Usage: 
                Digital Signature, Key Encipherment
            X509v3 Subject Alternative Name: 
                DNS:localhost, DNS:test-mdb-ssl
    Signature Algorithm: sha256WithRSAEncryption
         35:75:46:2b:6a:b9:a7:cc:24:ac:88:83:d5:e1:28:08:c1:0b:
         ff:9e:c1:57:86:92:c1:63:c3:bf:82:e7:11:d2:83:89:58:78:
         94:51:87:81:e7:fb:78:53:0c:19:2e:9e:41:84:26:91:2d:4a:
         e5:cf:7f:9b:4e:80:ad:5c:27:11:d7:62:81:4f:87:f4:59:d4:
         8d:ba:73:df:13:48:c5:b7:f1:21:1c:9a:59:17:d9:12:3e:4f:
         84:5a:ba:16:92:2d:5a:7a:f7:b7:af:76:c7:be:6e:96:b0:a3:
         8f:62:9a:ff:bc:16:db:e0:c5:f6:57:db:f6:1c:d7:eb:75:24:
         98:43:08:17:0c:9f:6e:42:b5:ee:74:b1:12:1e:1e:86:2d:72:
         6b:62:ab:33:ff:38:57:db:96:d5:98:c3:6e:97:36:26:f9:1b:
         e7:05:0f:db:e4:a7:4c:ca:2c:4c:d8:b8:d7:92:52:b0:fa:aa:
         c0:ee:b7:9c:33:25:85:77:3a:b8:50:6f:61:a4:59:54:89:fe:
         0d:f3:d2:7f:7d:91:64:7e:d1:e1:d1:02:5f:cf:e4:b1:47:70:
         98:37:4e:9f:33:94:7c:67:5a:66:11:d8:c4:33:0b:e9:a6:9a:
         86:cb:ab:27:e1:44:41:36:3d:8e:47:6f:73:eb:84:a7:90:eb:
         3a:6e:3a:16:1b:a1:68:60:6b:3a:93:47:1d:32:29:1c:d2:1b:
         c5:d6:cf:11:c5:0e:b0:67:4f:c2:07:82:bc:d4:9c:b4:a8:58:
         4c:a4:47:22:09:0a:e2:72:83:4e:e9:74:14:b7:2d:04:31:f6:
         37:e4:62:48:18:63:42:31:df:f6:2f:0f:ab:f2:ef:75:a8:a4:
         bf:96:5a:49:fb:ce:72:57:64:c9:c1:d3:56:67:5f:16:69:48:
         35:9c:98:14:f3:25:72:ef:18:38:38:43:f3:c4:29:55:fd:37:
         c8:ae:db:00:5d:96:50:ae:50:ca:14:a3:58:ae:84:21:c2:8f:
         24:cf:ce:f2:55:e1:60:37:67:ec:5a:08:81:85:8d:9b:13:c6:
         81:e7:66:0b:4e:76:1f:3b:14:a7:c0:ce:18:16:ec:77:e5:c8:
         33:47:1b:63:03:4b:9d:dd:fb:98:ff:0f:50:25:0c:88:a4:0e:
         67:a3:26:8d:1b:38:9f:9e:7e:25:dc:4b:49:ba:75:b5:3b:ae:
         9c:68:37:09:bb:59:c4:9a:14:6a:d3:c1:6c:19:55:b3:6c:95:
         bb:24:8b:55:f8:35:c6:1e:1d:fb:8f:60:33:fa:f8:94:a9:e2:
         6a:93:12:b8:d0:18:42:4e:8c:24:1f:96:2b:4c:49:fd:53:11:
         a0:aa:01:30:b2:3e:2c:9f
-----BEGIN CERTIFICATE-----
MIIG3jCCBMagAwIBAgIBATANBgkqhkiG9w0BAQsFADCBjDELMAkGA1UEBhMCREUx
DzANBgNVBAgMBkJlcmxpbjEPMA0GA1UEBwwGQmVybGluMRgwFgYDVQQKDA9CaWdj
aGFpbkRCIEdtYkgxDDAKBgNVBAsMA0VORzEQMA4GA1UEAwwHVEVTVC1DQTEhMB8G
CSqGSIb3DQEJARYSZGV2QGJpZ2NoYWluZGIuY29tMB4XDTE3MDYwMjA3MDkyOFoX
DTI3MDUzMTA3MDkyOFowgZExCzAJBgNVBAYTAkRFMQ8wDQYDVQQIDAZCZXJsaW4x
DzANBgNVBAcMBkJlcmxpbjEYMBYGA1UECgwPQmlnY2hhaW5EQiBHbWJIMQwwCgYD
VQQLDANFTkcxFTATBgNVBAMMDHRlc3QtbWRiLXNzbDEhMB8GCSqGSIb3DQEJARYS
ZGV2QGJpZ2NoYWluZGIuY29tMIICIjANBgkqhkiG9w0BAQEFAAOCAg8AMIICCgKC
AgEA5HFDkfI6Jk1tYfVU3aSii+h5t0SUnzBdhtj1nYDLUejAjJ4v/sufu/G1l0fR
nkNkK/A/mTAcJzR0hx5zj4ZmiQu5ZAWKldeB2vq30ExZDhzXHwd0fTidsG0CqMNj
9F3VKVvfilbFUSkyW+rM6gCgBOmK9aDhw3fJPRuZ+ui7COWYu+xdftl+OZirFs/m
6N+pazdyg01DlD6ZOa4fWslRcTBeIHDJkP+6i2zZXz3fA9X+91LqQW1L/m4EMO+k
GSCo/fsMcnYsMFRd9CvpzZY/u+ltfnmP/gZvQLFCqFSAZVZQr8LiaOCsIpAArrxv
VRq37ZAi6Mc0Hkp90iawNRbsMEXNrPOH9ov+hIuznxMI8lmfP2TuIKDch4ooiYcc
oZFjgQFmQ3tfXzhpp/fO2gcLfCyH352lEtu0l+3pLDHVFMzw9aRsfllPczbrKBy+
aZgfEsHg22/wGmJRRXFYiGh+BkLLszGFU5BwhPQIGNVOB4vbb9IPrMTCUqXtB7kb
GukiSiH4GiefR7XvyyQ6NincaPrxny4C+I2rJW66OwoOnsFA9FZ0dfy4hPq7BRe3
t9g2AkAWA8l1oGh+4PTJrvo9DKOBO+iihN1zbtSf5hzb2ZzWwrn7NI/2RjOeKb0N
ETMDJdwax0QAdoMWWqXTNbtHLZ53FuCwSJvdfCBWVh4fQIcCAwEAAaOCAUIwggE+
MAkGA1UdEwQCMAAwHQYDVR0OBBYEFPUrJmJHdPx1ap52jzXrI2S/3Rg/MIHBBgNV
HSMEgbkwgbaAFJfI3Mjur+JwxAmbGVCPhh0s/24moYGSpIGPMIGMMQswCQYDVQQG
EwJERTEPMA0GA1UECAwGQmVybGluMQ8wDQYDVQQHDAZCZXJsaW4xGDAWBgNVBAoM
D0JpZ2NoYWluREIgR21iSDEMMAoGA1UECwwDRU5HMRAwDgYDVQQDDAdURVNULUNB
MSEwHwYJKoZIhvcNAQkBFhJkZXZAYmlnY2hhaW5kYi5jb22CCQCkxN/bGtuDxzAd
BgNVHSUEFjAUBggrBgEFBQcDAQYIKwYBBQUHAwIwCwYDVR0PBAQDAgWgMCIGA1Ud
EQQbMBmCCWxvY2FsaG9zdIIMdGVzdC1tZGItc3NsMA0GCSqGSIb3DQEBCwUAA4IC
AQA1dUYrarmnzCSsiIPV4SgIwQv/nsFXhpLBY8O/gucR0oOJWHiUUYeB5/t4UwwZ
Lp5BhCaRLUrlz3+bToCtXCcR12KBT4f0WdSNunPfE0jFt/EhHJpZF9kSPk+EWroW
ki1aeve3r3bHvm6WsKOPYpr/vBbb4MX2V9v2HNfrdSSYQwgXDJ9uQrXudLESHh6G
LXJrYqsz/zhX25bVmMNulzYm+RvnBQ/b5KdMyixM2LjXklKw+qrA7recMyWFdzq4
UG9hpFlUif4N89J/fZFkftHh0QJfz+SxR3CYN06fM5R8Z1pmEdjEMwvpppqGy6sn
4URBNj2OR29z64SnkOs6bjoWG6FoYGs6k0cdMikc0hvF1s8RxQ6wZ0/CB4K81Jy0
qFhMpEciCQricoNO6XQUty0EMfY35GJIGGNCMd/2Lw+r8u91qKS/llpJ+85yV2TJ
wdNWZ18WaUg1nJgU8yVy7xg4OEPzxClV/TfIrtsAXZZQrlDKFKNYroQhwo8kz87y
VeFgN2fsWgiBhY2bE8aB52YLTnYfOxSnwM4YFux35cgzRxtjA0ud3fuY/w9QJQyI
pA5noyaNGzifnn4l3EtJunW1O66caDcJu1nEmhRq08FsGVWzbJW7JItV+DXGHh37
j2Az+viUqeJqkxK40BhCTowkH5YrTEn9UxGgqgEwsj4snw==
-----END CERTIFICATE-----
-----BEGIN PRIVATE KEY-----
MIIJQwIBADANBgkqhkiG9w0BAQEFAASCCS0wggkpAgEAAoICAQDkcUOR8jomTW1h
9VTdpKKL6Hm3RJSfMF2G2PWdgMtR6MCMni/+y5+78bWXR9GeQ2Qr8D+ZMBwnNHSH
HnOPhmaJC7lkBYqV14Ha+rfQTFkOHNcfB3R9OJ2wbQKow2P0XdUpW9+KVsVRKTJb
6szqAKAE6Yr1oOHDd8k9G5n66LsI5Zi77F1+2X45mKsWz+bo36lrN3KDTUOUPpk5
rh9ayVFxMF4gcMmQ/7qLbNlfPd8D1f73UupBbUv+bgQw76QZIKj9+wxydiwwVF30
K+nNlj+76W1+eY/+Bm9AsUKoVIBlVlCvwuJo4KwikACuvG9VGrftkCLoxzQeSn3S
JrA1FuwwRc2s84f2i/6Ei7OfEwjyWZ8/ZO4goNyHiiiJhxyhkWOBAWZDe19fOGmn
987aBwt8LIffnaUS27SX7eksMdUUzPD1pGx+WU9zNusoHL5pmB8SweDbb/AaYlFF
cViIaH4GQsuzMYVTkHCE9AgY1U4Hi9tv0g+sxMJSpe0HuRsa6SJKIfgaJ59Hte/L
JDo2Kdxo+vGfLgL4jaslbro7Cg6ewUD0VnR1/LiE+rsFF7e32DYCQBYDyXWgaH7g
9Mmu+j0Mo4E76KKE3XNu1J/mHNvZnNbCufs0j/ZGM54pvQ0RMwMl3BrHRAB2gxZa
pdM1u0ctnncW4LBIm918IFZWHh9AhwIDAQABAoICAQDTqYp1CN4OLUGDOSA3+VpO
jclxII8gbFzMG+x/0h0ROLpn0A4iZCMNriiWEgpMPJ7tAz66PlRnkvfBVlq2ik4o
/v74iRXePn7oGdQEoSkGpXxBGNQ7TiD1nhuPqPLNMb/XAXQ/JqTOzYAGoKjazFd4
FbgWXMmyJiQEhbWHQOpDlRCOVrROW1DUJvunOFz4OnwshoSI2icajWHFiussYEog
uTMNldN9kSUUGHfUAmzHjhkeqem5U37NMLybZv9B9Pv/0AO5bnsFELa5DZMlVOia
wO8d956OPQIKC/P6KcmJm49JOyYzDLERmSG4xYnWbdoruJhP3HsS8exgsk4j8qhF
VchlDLQL98Bu2kLgne8v8lBgcXbkanuedYFGnOqVRTCKbl2BwS8/PqaMbOkO54bG
gsX2OYEtKMiCFyNZVZQH+dHg2kUSGMg9h953GAGfxbDuTBTLMwPCphX7dUn3u+g+
Y/Et9Kki6PgMLwYRjU56pPe0DqHcTc0TZgpKeb1w7JFgEuQrOB2o4wPRlwjaGx8G
khA9CWhHY3zyrF5FOoy01zYyPZGYb1pUkkEzZ/MEPn0k5bqC4ZUgT/vzYKXkOFvB
RdTOVMee6VWDFLKGO0eQNi/MeFFeVVGStrOo0wNowylReP2J45UNH6EQQIL8Jm7w
fTz+65nEib0vv9D1C2QIWQKCAQEA9WUAFGQbLsr9TBeQd7h79KEkJ/cdk6iLbtN2
DSFc1Zto5KEliZmlqkw4uT4pQIWaSPWVmINxV8QTcR/6VUzxM0McDfAw51wLZQ2w
jdMKUWfYEEmaA6MXF3JOXVpe8KuXge0s548DpxBHrSo9gWOhMjok/qUrXcQGDlxp
1hQ6qLKVUJ8Hzi3U3rwnWGNaSKHECFUn6Ic0vQo5+ontAlKfhLlkl86zmGvMd/Ut
zCWacRFpYg+Qo0TXxzopuh4DI1yjMFH3HJxptVl8Yd7CCzOLmwPWBSNmY8OUY9D6
s3xrPPyuVz01iNMPK290zGAeLLnO5bpTIlsZBip7SjG0ayoBqwKCAQEA7lC1c1Tg
SxNZrAr0trFl+/cxguALXRocvcMm3mCXgStTGeY08GXiPRl8+TmNt9UAWbkp5Kel
cdrYI+AsaAu/Y8ri0NRJPQGsyE7JEe7PHQa7a8AcPn/1c9I7HvtWVomvxh6rXSkr
gdazSGZvixwPBmc25E4duUxQHJ+GraiYAjNS8Ox6nFqKIWTNfeT+ff7X9IAuZcAX
oJmb1xJyDjf4qPhJobO5+zqJvNBH6bkTusV9Y4kkrcs5VQx2QHH4IOyWwWA/e4Wo
jGytbe/4lUk7DKeJUSA0tUGWztWhT02KhH7x+MOJa9KHGP616rRA/RVaYxCRIju0
YM/21iG168zYlQKCAQA8EiRp2XOaCdDlzqLr27pkUQoTyndwDQNM9vDgF/msxKVx
ykzxGS6nuI7uMdxRUiNJluyu8AZP8My9lZFnTjWBUf1NIC4ohKy5aRd+MFpHQT9w
BURxfXwKnk22poe1LJwjDxc9/BFt1RtmtX9m7CeqrvcdavtpsbG11EOIR11wrH7G
xJdZjnicqbyL845HV2owi///+REc8aLtxNPDDMzF5chNLSljt4fPGbLDVbUv1o5Q
lfTXMuQLfh521B/6iRPdoUL3uwZZgXVkU+52ZYDYSqEakubepyLtKFwmkd+Ch2x6
KJ6xRtFg1aDm4uSgGEAglnMBZwGCM+YIbJB450iPAoIBAQDTue7LbV/sM1/aws0R
NuCFj+N0A/r0l0trqGLy9NwFjWlCPE1SOyJZ6Dgo7+IhreKm1CQNGoiZc7XNgc/S
DIXYchs7Ly92PPO17pEjFoj5n86Jd19gg6ydXuzZpLDbJ2571SmoFfiqXQZhT2jQ
LXiH1tFk2qX7x3nxRCWSSZPreI+6rk5sdN/9tSIANJ+Jbw2MEwmlqpkTPQXAeYnN
ahrIe/Zm7FdShXpzvpP1aVHHAMha0zA8G65vCihRLzAkiC2T1h/wbRoG0FLwtl+i
ujH1Fy+fXL6XPpNuZUvwOdLTzjjKK2b+3UbbhQg4YjbO4tav5rsar/KchIcnTUHk
IdVVAoIBAAk19xFa8SGaY9cKIigYkcPOFHwI/rXix8YG2n3kZmTVmevh0ebiSQ/z
++U3GXUFcUYD6lB3YqyMKVRdagQLh58J7q1EFM5hZLAH/i9KQMCKmfbXb6ekVFBY
9xhgvOKzRugVTxVv0/PqWpF/oWOJP6r/NsKdJf5y4TptlEjPXsdmXzZIKL4h3oG3
ORpnrROD1mWQxV3krlT4jc7q4QaKxaKbVwl2SJpLNBXI0D/R+Dt1K/PMnhRmbBJl
d2G+bQP6dkKhATdyiK6XoEk0bP3meD4LWgRdsQdMTI2ayBVis8LREcMm0F3SaUgB
gHiBIz7uxpEmV18w8MA+aiVZw3Ov3lE=
-----END PRIVATE KEY-----
