Certificate:
    Data:
        Version: 3 (0x2)
        Serial Number: 3 (0x3)
    Signature Algorithm: sha256WithRSAEncryption
        Issuer: C=DE, ST=Berlin, L=Berlin, O=BigchainDB GmbH, OU=ROOT-CA, CN=Test Infra Root CA/emailAddress=dev@bigchaindb.com
        Validity
            Not Before: Jun 14 12:44:48 2017 GMT
            Not After : Jun 12 12:44:48 2027 GMT
        Subject: C=DE, ST=Berlin, L=Berlin, O=BigchainDB GmbH, OU=MongoDB-Mon-Instance, CN=test-mdb-mon-ssl/emailAddress=dev@bigchaindb.com
        Subject Public Key Info:
            Public Key Algorithm: rsaEncryption
                Public-Key: (4096 bit)
                Modulus:
                    00:ba:24:72:5f:73:ff:ea:19:08:30:c8:91:47:01:
                    2c:ec:0e:b2:81:fa:84:01:72:38:d7:17:81:b3:87:
                    b0:ed:91:b2:d7:b1:7c:30:c6:d3:93:5f:39:04:e6:
                    fc:dd:b4:f6:c3:2a:d6:ce:ce:f1:6f:bf:32:05:92:
                    eb:90:66:0e:95:c5:ce:5c:3a:37:ac:cc:40:c5:ef:
                    3e:53:b0:49:ed:ab:3c:9f:08:88:63:fa:a7:db:d4:
                    6b:e9:55:0f:f3:f9:62:45:b9:a4:a2:3d:6a:60:b5:
                    ee:9c:e9:7c:cb:ef:06:0d:c5:92:21:4a:79:b4:f4:
                    58:20:a6:8e:82:87:05:2c:c5:94:ab:6a:56:09:9e:
                    64:bb:ab:29:86:04:a3:39:fd:4d:25:da:f7:6c:c9:
                    c2:c4:42:66:f4:f4:4e:91:dc:09:10:3d:6b:16:0b:
                    a4:be:c4:52:6e:4b:fa:8a:50:74:be:54:a8:46:e2:
                    0d:53:db:9b:8d:6d:58:71:71:8e:f9:4f:ca:07:48:
                    c2:eb:fa:d1:42:0a:33:18:9e:14:0e:a8:6d:78:f6:
                    8a:76:72:db:94:1e:56:cd:02:5d:7e:6d:6f:75:35:
                    cc:ca:c0:be:57:2c:6e:96:7f:79:51:84:ae:95:a5:
                    3d:da:bd:01:8f:6a:de:8b:d0:dc:f8:61:27:f2:a6:
                    cf:0d:40:89:d0:2e:db:da:e5:ad:c5:9d:95:5f:22:
                    a4:52:70:33:4f:df:13:8f:96:a0:9b:21:aa:15:20:
                    39:c6:16:65:98:b8:97:2a:cc:47:e0:79:41:b4:a2:
                    96:32:68:65:f6:8c:1b:ce:c8:38:9c:75:2c:1a:87:
                    d9:87:9b:f8:b7:ff:2c:15:e2:0a:12:7b:a0:ef:3a:
                    39:7e:32:3d:f9:42:d7:5f:08:38:93:4e:f1:41:a0:
                    c2:55:30:55:40:aa:bd:68:8e:69:c3:33:6f:50:0d:
                    ef:44:80:da:e5:01:61:d3:71:41:de:03:ab:42:85:
                    a0:80:1d:2a:b7:88:15:7b:ee:43:64:20:57:f7:25:
                    b2:6c:47:a6:5b:15:58:13:67:47:a3:07:17:20:51:
                    d2:8d:7b:71:91:39:5a:1b:a2:a0:0f:15:73:84:74:
                    1f:49:b8:64:4b:3d:86:99:85:a5:e3:05:63:37:c3:
                    bf:e7:c2:4c:fc:ff:bc:9a:8f:43:43:52:a7:cb:b8:
                    91:e7:0a:10:02:ac:74:3a:8b:06:34:50:d2:a3:12:
                    81:d2:7b:46:bb:ad:2f:9e:ed:9e:0d:8d:27:64:99:
                    e5:e2:a2:56:cb:ad:3f:48:24:9e:11:32:bf:70:44:
                    e2:a5:bf:39:86:5b:ed:5d:75:c2:53:40:62:da:2d:
                    f8:f2:1d
                Exponent: 65537 (0x10001)
        X509v3 extensions:
            X509v3 Basic Constraints:
                CA:FALSE
            X509v3 Subject Key Identifier:
                31:63:2C:98:2F:9F:6C:44:82:A9:B8:D3:06:15:95:84:D9:52:98:71
            X509v3 Authority Key Identifier:
                keyid:69:C7:85:80:64:E6:90:40:E9:30:68:88:23:D2:4D:BB:EC:DF:98:98
                DirName:/C=DE/ST=Berlin/L=Berlin/O=BigchainDB GmbH/OU=ROOT-CA/CN=Test Infra Root CA/emailAddress=dev@bigchaindb.com
                serial:E8:06:B2:C9:2A:9C:2E:FC

            X509v3 Extended Key Usage:
                TLS Web Client Authentication
            X509v3 Key Usage:
                Digital Signature
    Signature Algorithm: sha256WithRSAEncryption
         1e:16:02:5b:35:f6:36:0a:54:bc:48:11:51:39:a1:b1:e5:39:
         bd:26:73:bc:37:22:95:87:3f:ed:e6:e1:00:fa:e2:a7:2d:ef:
         9d:25:ee:b0:7c:c2:e5:8e:9d:ff:24:51:ee:a2:cb:2c:b9:0a:
         38:07:94:8c:12:21:e1:1f:83:5f:4d:92:a8:b1:ff:53:90:97:
         30:2d:06:d6:84:79:27:6c:34:dc:19:6e:af:dd:80:a7:66:3b:
         0d:c5:c2:0d:7a:ce:b6:12:c2:9e:6f:02:0d:d0:41:c1:7d:75:
         aa:07:46:50:e0:06:22:a8:d7:d2:45:dc:d3:c1:20:01:61:c6:
         07:13:74:b3:9e:de:88:1a:75:1d:8d:0a:3f:fd:0a:56:07:92:
         d6:ce:37:f5:e6:ad:d0:64:33:77:36:dd:76:06:e1:20:00:64:
         88:d0:ca:71:f2:65:7c:26:ce:2c:55:07:50:36:d9:2b:b2:80:
         fa:d1:4b:fc:31:89:d9:3e:c6:50:a8:ce:cf:df:d2:54:53:e7:
         80:ab:e6:4e:66:e8:91:70:55:95:80:94:74:60:f5:e8:ff:69:
         65:c0:41:17:af:1e:8a:50:a7:4e:f3:c1:76:42:7a:62:22:0a:
         51:33:06:57:bc:6f:7f:f6:5a:9d:4f:cd:2b:21:65:63:d8:ab:
         5b:38:8f:8c:f6:37:50:ca:32:5c:9a:3a:1b:a1:db:9f:fa:10:
         4e:35:54:9c:24:42:8a:33:58:a5:3e:b4:a4:67:4a:d2:b1:8d:
         99:d5:4d:1f:f7:d9:c6:ee:60:54:7f:bc:57:2f:0a:b9:ce:04:
         96:0f:0d:9c:22:39:a2:4e:e3:c7:3d:df:9c:09:af:45:62:57:
         1e:25:67:b1:4e:e9:15:88:c5:b3:2d:88:c8:60:8e:5e:b5:28:
         49:77:63:6f:0f:9d:d2:06:94:b4:b3:d9:92:2a:32:7f:45:c8:
         32:69:12:7d:8d:47:52:5b:3e:7f:f0:bc:80:11:56:08:97:7a:
         eb:fb:0d:69:5d:88:b9:bb:27:7f:de:2e:a9:63:c5:89:56:88:
         ce:2f:47:f0:1f:bc:3a:60:f4:19:8a:39:82:11:51:99:7a:8d:
         1f:11:53:2f:f4:43:48:08:c9:1e:a5:3b:ed:f0:8e:cc:d6:1e:
         20:e9:2a:4d:c3:cc:3a:6c:63:29:a7:1b:c3:63:13:19:d5:82:
         61:b9:83:39:e8:60:d9:06:e4:cc:55:5e:93:70:80:97:58:f4:
         24:1f:2b:6f:e6:ff:67:f1:76:2a:b3:db:6b:1a:22:42:a0:85:
         44:de:1a:9a:9e:b5:d2:ca:95:11:2d:ba:57:4e:2e:79:67:10:
         c8:ee:aa:67:61:ca:8f:25
-----BEGIN CERTIFICATE-----
MIIG4zCCBMugAwIBAgIBAzANBgkqhkiG9w0BAQsFADCBmzELMAkGA1UEBhMCREUx
DzANBgNVBAgMBkJlcmxpbjEPMA0GA1UEBwwGQmVybGluMRgwFgYDVQQKDA9CaWdj
aGFpbkRCIEdtYkgxEDAOBgNVBAsMB1JPT1QtQ0ExGzAZBgNVBAMMElRlc3QgSW5m
cmEgUm9vdCBDQTEhMB8GCSqGSIb3DQEJARYSZGV2QGJpZ2NoYWluZGIuY29tMB4X
DTE3MDYxNDEyNDQ0OFoXDTI3MDYxMjEyNDQ0OFowgaYxCzAJBgNVBAYTAkRFMQ8w
DQYDVQQIDAZCZXJsaW4xDzANBgNVBAcMBkJlcmxpbjEYMBYGA1UECgwPQmlnY2hh
aW5EQiBHbWJIMR0wGwYDVQQLDBRNb25nb0RCLU1vbi1JbnN0YW5jZTEZMBcGA1UE
AwwQdGVzdC1tZGItbW9uLXNzbDEhMB8GCSqGSIb3DQEJARYSZGV2QGJpZ2NoYWlu
ZGIuY29tMIICIjANBgkqhkiG9w0BAQEFAAOCAg8AMIICCgKCAgEAuiRyX3P/6hkI
MMiRRwEs7A6ygfqEAXI41xeBs4ew7ZGy17F8MMbTk185BOb83bT2wyrWzs7xb78y
BZLrkGYOlcXOXDo3rMxAxe8+U7BJ7as8nwiIY/qn29Rr6VUP8/liRbmkoj1qYLXu
nOl8y+8GDcWSIUp5tPRYIKaOgocFLMWUq2pWCZ5ku6sphgSjOf1NJdr3bMnCxEJm
9PROkdwJED1rFgukvsRSbkv6ilB0vlSoRuINU9ubjW1YcXGO+U/KB0jC6/rRQgoz
GJ4UDqhtePaKdnLblB5WzQJdfm1vdTXMysC+Vyxuln95UYSulaU92r0Bj2rei9Dc
+GEn8qbPDUCJ0C7b2uWtxZ2VXyKkUnAzT98Tj5agmyGqFSA5xhZlmLiXKsxH4HlB
tKKWMmhl9owbzsg4nHUsGofZh5v4t/8sFeIKEnug7zo5fjI9+ULXXwg4k07xQaDC
VTBVQKq9aI5pwzNvUA3vRIDa5QFh03FB3gOrQoWggB0qt4gVe+5DZCBX9yWybEem
WxVYE2dHowcXIFHSjXtxkTlaG6KgDxVzhHQfSbhkSz2GmYWl4wVjN8O/58JM/P+8
mo9DQ1Kny7iR5woQAqx0OosGNFDSoxKB0ntGu60vnu2eDY0nZJnl4qJWy60/SCSe
ETK/cETipb85hlvtXXXCU0Bi2i348h0CAwEAAaOCASMwggEfMAkGA1UdEwQCMAAw
HQYDVR0OBBYEFDFjLJgvn2xEgqm40wYVlYTZUphxMIHQBgNVHSMEgcgwgcWAFGnH
hYBk5pBA6TBoiCPSTbvs35iYoYGhpIGeMIGbMQswCQYDVQQGEwJERTEPMA0GA1UE
CAwGQmVybGluMQ8wDQYDVQQHDAZCZXJsaW4xGDAWBgNVBAoMD0JpZ2NoYWluREIg
R21iSDEQMA4GA1UECwwHUk9PVC1DQTEbMBkGA1UEAwwSVGVzdCBJbmZyYSBSb290
IENBMSEwHwYJKoZIhvcNAQkBFhJkZXZAYmlnY2hhaW5kYi5jb22CCQDoBrLJKpwu
/DATBgNVHSUEDDAKBggrBgEFBQcDAjALBgNVHQ8EBAMCB4AwDQYJKoZIhvcNAQEL
BQADggIBAB4WAls19jYKVLxIEVE5obHlOb0mc7w3IpWHP+3m4QD64qct750l7rB8
wuWOnf8kUe6iyyy5CjgHlIwSIeEfg19Nkqix/1OQlzAtBtaEeSdsNNwZbq/dgKdm
Ow3Fwg16zrYSwp5vAg3QQcF9daoHRlDgBiKo19JF3NPBIAFhxgcTdLOe3ogadR2N
Cj/9ClYHktbON/XmrdBkM3c23XYG4SAAZIjQynHyZXwmzixVB1A22SuygPrRS/wx
idk+xlCozs/f0lRT54Cr5k5m6JFwVZWAlHRg9ej/aWXAQRevHopQp07zwXZCemIi
ClEzBle8b3/2Wp1PzSshZWPYq1s4j4z2N1DKMlyaOhuh25/6EE41VJwkQoozWKU+
tKRnStKxjZnVTR/32cbuYFR/vFcvCrnOBJYPDZwiOaJO48c935wJr0ViVx4lZ7FO
6RWIxbMtiMhgjl61KEl3Y28PndIGlLSz2ZIqMn9FyDJpEn2NR1JbPn/wvIARVgiX
euv7DWldiLm7J3/eLqljxYlWiM4vR/AfvDpg9BmKOYIRUZl6jR8RUy/0Q0gIyR6l
O+3wjszWHiDpKk3DzDpsYymnG8NjExnVgmG5gznoYNkG5MxVXpNwgJdY9CQfK2/m
/2fxdiqz22saIkKghUTeGpqetdLKlREtuldOLnlnEMjuqmdhyo8l
-----END CERTIFICATE-----
-----BEGIN PRIVATE KEY-----
MIIJQQIBADANBgkqhkiG9w0BAQEFAASCCSswggknAgEAAoICAQC6JHJfc//qGQgw
yJFHASzsDrKB+oQBcjjXF4Gzh7DtkbLXsXwwxtOTXzkE5vzdtPbDKtbOzvFvvzIF
kuuQZg6Vxc5cOjeszEDF7z5TsEntqzyfCIhj+qfb1GvpVQ/z+WJFuaSiPWpgte6c
6XzL7wYNxZIhSnm09Fggpo6ChwUsxZSralYJnmS7qymGBKM5/U0l2vdsycLEQmb0
9E6R3AkQPWsWC6S+xFJuS/qKUHS+VKhG4g1T25uNbVhxcY75T8oHSMLr+tFCCjMY
nhQOqG149op2ctuUHlbNAl1+bW91NczKwL5XLG6Wf3lRhK6VpT3avQGPat6L0Nz4
YSfyps8NQInQLtva5a3FnZVfIqRScDNP3xOPlqCbIaoVIDnGFmWYuJcqzEfgeUG0
opYyaGX2jBvOyDicdSwah9mHm/i3/ywV4goSe6DvOjl+Mj35QtdfCDiTTvFBoMJV
MFVAqr1ojmnDM29QDe9EgNrlAWHTcUHeA6tChaCAHSq3iBV77kNkIFf3JbJsR6Zb
FVgTZ0ejBxcgUdKNe3GROVoboqAPFXOEdB9JuGRLPYaZhaXjBWM3w7/nwkz8/7ya
j0NDUqfLuJHnChACrHQ6iwY0UNKjEoHSe0a7rS+e7Z4NjSdkmeXiolbLrT9IJJ4R
Mr9wROKlvzmGW+1ddcJTQGLaLfjyHQIDAQABAoICAEU5ysNPC6zPFGm4HbdPa5p6
uM54EWHMTfFIT7cpzpX7qoxm+G3Xc9YKAtWc5gu6Ak+A/hQ5iDbr3zmNc0fnfKMc
xmssR4pfB/PUztQm6seV+FyYusib7pNlw6AqP12XsIGH0f94YbiH0K7QctYRFapH
gNoarXqrqJ6z8qn+duE4tdquGENJgeL9e9rYnK+zUV6zuXLe8i01GL8eoJ3EPCar
AMlZGTLNJm7YmNuZomEqcM6zwQsf0BDfypWeCvMTRmpBGCTUycAKtQgBuindX6Et
5z635ouGYPerWoPrRRlNIdWBqwgWgSY9UCwN8TO8GW3g/tSMhSlwSs2grE+k07lR
6d05taL8c/thZDpHBePVhKvNvJfI8ef0lqCCPc/uFnmWkY3pg2HB3Z605YqPhddL
tTqaDZVL2oc9qrnyjz/6cFOa9Mh3cdt8L1+j0hMDWxYOcYS7IJi35V25B8wDPVZj
LXCINNQtTio7hwc+jyXhPVSERfeISlU1Ki5ZomWLzMtkdDzBz8By++aEudKw+cV/
OjLa07SLdn05j52rqYhzaZEbeXoY1L2N+V9c86iukjr8vLHStzgmzpWDYcsnHu7w
Ojy4iRtAvI2a+PSq0tdqfhFKCA5zevLcCxUUhSDxWIa81TYEE+MfqQYtEASB1/Ze
Nt6IKu9zpLXA1WFNxLktAoIBAQDvU/K+eznf/ro46WvpKqXyU0YkEoMNHDQ7ljrG
QLkDo9WfN08aKpi6tjdgKZ97yqJae16h6WJj6aDyKL+kpkhitQ8QPhvpg4Efiupz
15gqbLzlIqrmdfGH/X2H/C3i6WDdrJWMA7ERitK4TKGoKzIH+YHA3kjEwvVnAh/U
TKov47H40UP8qTTmortTC9uO+3TmbpSkDU7iGhTKd1RYcLnKj9jmI+//BZ0OYe6U
QzrCKD27YIsH0QD9pWv/Wn3Xy2yH7EnWxXzxq6Wd767JHIloHVYICrnMf/rSA/sV
8g/JjLuLCUf2U0DxauX7wcnC7XtOJ0u5PBw1lzRYA/vfNgVPAoIBAQDHHAO9K2E7
5Gy2zVVdqxgK4NqY6pOgaEu7T95VaTchShQ3dGs5b/s8GU+gjZ+XOF4VEqjazGR5
xUXqlF+XLp0YI7vn9yNoUYRvHtbun8hBaQ2yc4iWzxGeAQVCYr8e0w6gs7pyFIh5
xKZzaYZFKIJhTD/NApuul0IYnRSnKXhODp4x/dElpgectkLUHlME9rrXjBdKQVFN
x50JBnopA0/npGxtuDzztSP7qq1rFp3HHMChvzM5oLoOj5b80OmaI52vCGY6Udhy
HMNbMzMiEHgekNramFEe0fZxuwUkF6+O+FIb+jPy0EP04an4IDNhjLet7PHN62qW
CEF1UIz/w87TAoIBABnY8TCNUnTUp/wZiaQHDSEcyUiAD1NNJn8A/JwIxXKVMS8e
5BYpX5FauKRUGnteKSaoiFHoSM4Nn2pH6Fq58rtmXpgcfRs9Lqbfc+7K7A447DW7
BsYZGtrbD8GuBK6rEeEfEI+snmUMnzF0ZUkqUR73XYIc/7Lwc1yKqDFfjknZx5Dd
2P/irmnyTVTsxOuuULPKYZdOMKTOuEwdkyhyFD7CRmSkoPjj/FBfV0r/78qkWfZw
uNNBSWAbi4xqk4jI2ZHcfSUK8zGOnjZuemwR/u0VrgL0VZi2gbpI38dA+1+DKYYc
nH8IAs2QBAKqrUW2LEkGiXEaAtnu2KJg28UBqpUCggEABSMw6YGkCaKUN4dGy5rt
jOJOYaGz23C1e4jNCNElLgO2T9P+LEY6akuQ5WiiFInMy6hmmParJQU1D59yc/ks
7oGFiK+0xy1LSH64NwICbcWjJ9aZUKLZJoWKODNKESaK+xSIHAdxmgq77MBtSX2J
F6+a+dQ2ZiPa/b2X2dRVGVaBOHL/IYSOL7n4MXby127yVTt1ImJbEbGz2JbFMie2
uRhh/9bAI92ppwW5Ycj8mzWftsyzKqp+AoAr+iv9yw9eMzT5Rkn0VsVtOP4yNI/O
OaOtMfS6Kxxpyndz44GE8yBvJe+nxX0gM8Ja218hVEQIPUGe35xSbLqbzcYdTUAl
JwKCAQBWx+ej+03fXOPHN8K2IA1a+8wEwjxsjbpGtHd/nyDVkjdqVHW+Jkmyqkne
gFbDvq2ZHQJjDYB9o/ZnwXpEXfweSz2XsdiNBMQvIUMOGRmI9yJJ1Ez1gfhlJYpW
Im+/dWQCTw0o/8cHPI32ic3iBZBuemGCxccF89bmX+GPzK/aT8F+5uG/pHjHXNU6
S/jKxZIwDM9yW4vIRdOAAi1eya0f+VHE70ORpUXfkUV5kVQR7pLEWDFDKIF/zBGv
vRPdZOO5GOQb0kQ1eHyHDPUOimT1GlF+e9OLvy6dVDaqKRBEiVHjxfWGUnpH+Qo5
zlmQnC98+HETU0YHNxAAMsRPvxXi
-----END PRIVATE KEY-----
