Certificate:
    Data:
        Version: 3 (0x2)
        Serial Number: 1 (0x1)
    Signature Algorithm: sha256WithRSAEncryption
        Issuer: C=DE, ST=Berlin, L=Berlin, O=BigchainDB GmbH, OU=ROOT-CA, CN=Test Infra Root CA/emailAddress=dev@bigchaindb.com
        Validity
            Not Before: Jun 13 14:40:55 2017 GMT
            Not After : Jun 11 14:40:55 2027 GMT
        Subject: C=DE, ST=Berlin, L=Berlin, O=BigchainDB GmbH, OU=MongoDB-Instance, CN=test-mdb-ssl/emailAddress=dev@bigchaindb.com
        Subject Public Key Info:
            Public Key Algorithm: rsaEncryption
                Public-Key: (4096 bit)
                Modulus:
                    00:bb:37:f1:24:2f:83:95:2c:bf:47:a4:a0:2c:9f:
                    e1:bf:fb:70:f6:9b:04:a0:e8:3b:81:6f:ca:a6:22:
                    6d:63:75:48:bc:fa:57:29:16:f7:2f:09:52:6c:c5:
                    52:20:74:9b:27:99:5b:51:85:ea:ef:c9:5f:78:c9:
                    29:b8:cc:a4:a8:46:c2:a3:64:41:84:92:36:c7:a8:
                    82:e2:b6:5e:67:08:d6:bb:3d:36:06:31:10:53:7a:
                    58:66:66:89:4d:46:d3:f6:3e:38:d4:84:d9:6c:c4:
                    95:68:9e:66:b7:47:c6:63:dc:35:1c:46:3d:8e:c6:
                    96:13:aa:65:53:3d:75:84:76:af:85:d2:6f:97:78:
                    0f:d2:8a:c0:cb:3f:86:30:09:0f:bf:ae:30:cb:26:
                    05:61:0c:ad:07:5e:33:cc:82:bb:46:49:86:a5:6e:
                    07:1b:78:b2:71:7b:01:ee:00:97:ac:81:49:89:df:
                    73:ab:d7:78:8e:a3:c5:76:5c:e9:fd:48:5f:a6:45:
                    b8:97:13:6a:55:05:5e:e2:00:46:27:67:93:06:fb:
                    91:83:69:c7:5e:12:49:ce:39:b9:ca:69:9f:0d:ff:
                    6a:79:b6:6b:6f:81:6c:51:e2:d0:01:9b:f8:7b:25:
                    3e:09:4d:00:aa:89:7f:00:e3:fb:5c:35:19:8d:c2:
                    11:21:87:1e:7a:11:bd:88:b2:de:ea:bf:a0:8b:fb:
                    0c:c3:6d:e2:ce:1f:6c:5b:5f:4a:05:da:ff:f1:fd:
                    4a:f5:de:5b:d8:93:ca:17:6b:dc:80:3e:91:6e:97:
                    43:db:59:f5:80:c1:0a:54:32:cd:c3:be:87:e9:93:
                    14:ae:c7:29:01:90:e8:11:32:59:1a:73:bf:42:0d:
                    c6:82:2c:89:2e:54:67:c8:2a:c3:3b:ce:e6:c1:09:
                    48:ad:d3:a3:e1:80:f8:df:6e:4c:78:72:76:db:4e:
                    d9:b9:fa:5b:7c:85:73:64:c9:23:94:ae:5e:63:68:
                    7f:1e:63:d3:78:85:47:0b:ec:52:1e:02:cf:7b:9d:
                    96:9c:63:4f:46:f7:79:1e:90:d3:21:18:85:26:17:
                    f1:51:18:d6:87:1c:9b:50:0e:70:6b:f1:08:41:b6:
                    3c:fc:fb:d7:1f:f1:bd:2d:3e:77:b6:66:92:0a:81:
                    01:0f:4a:68:68:69:5c:0f:38:b3:46:68:1b:55:99:
                    67:29:d1:03:f2:a5:5b:f1:8e:53:ed:c7:cc:79:38:
                    9c:8d:a6:78:f4:3e:23:28:ee:a0:d3:55:0f:c3:f0:
                    64:c1:fb:e5:85:71:b2:1e:44:d3:1d:78:87:77:76:
                    e2:6f:5f:54:64:14:b4:2f:14:0b:a5:3d:98:fb:68:
                    99:1f:23
                Exponent: 65537 (0x10001)
        X509v3 extensions:
            X509v3 Basic Constraints:
                CA:FALSE
            X509v3 Subject Key Identifier:
                0B:53:E2:76:40:AD:73:C4:12:6C:85:CF:36:5B:5F:FB:6E:E8:03:A7
            X509v3 Authority Key Identifier:
                keyid:69:C7:85:80:64:E6:90:40:E9:30:68:88:23:D2:4D:BB:EC:DF:98:98
                DirName:/C=DE/ST=Berlin/L=Berlin/O=BigchainDB GmbH/OU=ROOT-CA/CN=Test Infra Root CA/emailAddress=dev@bigchaindb.com
                serial:E8:06:B2:C9:2A:9C:2E:FC

            X509v3 Extended Key Usage:
                TLS Web Server Authentication, TLS Web Client Authentication
            X509v3 Key Usage:
                Digital Signature, Key Encipherment
            X509v3 Subject Alternative Name:
                DNS:localhost, DNS:test-mdb-ssl
    Signature Algorithm: sha256WithRSAEncryption
         4c:14:3e:6b:af:f8:e8:69:11:2e:13:12:b7:9b:91:c7:68:01:
         26:00:b8:c8:35:8b:fe:d2:bb:ab:43:d1:7a:8e:24:b2:08:dd:
         1a:77:91:f0:68:35:42:56:ba:fe:26:3e:91:e2:8c:c1:01:e2:
         65:f7:3b:12:ba:7f:1e:8a:8e:5b:a1:c8:28:8c:16:b8:72:03:
         31:d6:6c:2c:ac:80:6e:7d:52:24:2e:4d:0b:e6:90:d1:7d:18:
         3f:ea:9f:7f:85:39:86:77:3b:19:3d:ba:b0:57:10:16:25:fc:
         d6:be:17:7b:c4:92:0e:c7:18:3c:69:48:e0:72:2c:3e:42:2f:
         0b:70:02:a8:c1:04:2b:d8:00:72:b4:67:35:d9:79:3f:98:71:
         55:92:e6:fa:51:2c:42:2f:71:c6:4f:98:7f:d8:2c:7c:12:70:
         97:ad:cd:92:0a:66:80:2a:ec:ac:e6:9b:3a:0b:27:ca:e0:cc:
         9f:b4:07:f4:fa:f7:60:17:39:f1:46:46:eb:e5:78:2a:84:b2:
         78:87:ce:73:ad:20:8b:50:8c:d5:c5:cd:4c:b1:96:be:64:24:
         e0:a9:81:c3:01:51:a2:b1:50:22:15:97:5a:e6:49:f3:1d:f1:
         72:3e:8f:0d:87:e9:05:c1:92:8e:4b:db:1b:e2:b8:3c:b4:13:
         dd:3d:ce:4d:f8:1e:8e:73:ae:5a:36:ba:be:dd:11:7c:b8:b1:
         ef:d2:94:84:a7:c4:0d:96:0f:e1:46:46:bb:7d:51:a9:61:13:
         98:47:b2:68:ad:85:0c:f9:32:0a:76:49:20:6f:34:72:ca:06:
         fd:05:6f:16:5d:10:67:3c:50:06:f3:c2:bd:58:c8:f4:b3:96:
         dc:28:26:62:e7:30:a0:0c:40:f6:7c:50:42:21:c8:e1:73:64:
         1b:9c:76:3e:78:1d:ea:54:fc:61:6c:3e:27:59:cb:c4:dd:9f:
         94:bf:b5:13:87:79:ff:28:1a:9b:7f:2f:1f:9b:22:1d:30:f6:
         c9:5f:53:6f:1a:88:38:b0:44:71:79:da:a6:0f:2b:e7:42:71:
         9c:3a:20:7f:6b:bb:93:71:b4:6c:9e:2a:b7:fa:57:cf:81:bd:
         21:eb:0a:db:83:07:ac:fd:79:cb:ef:c7:fd:cd:ef:22:7f:67:
         71:7c:e2:5c:40:8e:f1:06:c3:75:67:6a:70:f4:80:b3:ad:c6:
         89:31:9b:cf:8c:ae:6e:85:fd:51:c6:40:34:a2:0c:63:55:84:
         e1:a9:10:00:48:1a:64:95:80:45:09:d2:1d:3f:e2:6c:e1:e8:
         92:28:5f:da:a1:69:10:74:03:1f:f1:43:c4:43:fb:01:80:7e:
         fb:0b:2c:62:ad:e5:f2:61
-----BEGIN CERTIFICATE-----
MIIHCTCCBPGgAwIBAgIBATANBgkqhkiG9w0BAQsFADCBmzELMAkGA1UEBhMCREUx
DzANBgNVBAgMBkJlcmxpbjEPMA0GA1UEBwwGQmVybGluMRgwFgYDVQQKDA9CaWdj
aGFpbkRCIEdtYkgxEDAOBgNVBAsMB1JPT1QtQ0ExGzAZBgNVBAMMElRlc3QgSW5m
cmEgUm9vdCBDQTEhMB8GCSqGSIb3DQEJARYSZGV2QGJpZ2NoYWluZGIuY29tMB4X
DTE3MDYxMzE0NDA1NVoXDTI3MDYxMTE0NDA1NVowgZ4xCzAJBgNVBAYTAkRFMQ8w
DQYDVQQIDAZCZXJsaW4xDzANBgNVBAcMBkJlcmxpbjEYMBYGA1UECgwPQmlnY2hh
aW5EQiBHbWJIMRkwFwYDVQQLDBBNb25nb0RCLUluc3RhbmNlMRUwEwYDVQQDDAx0
ZXN0LW1kYi1zc2wxITAfBgkqhkiG9w0BCQEWEmRldkBiaWdjaGFpbmRiLmNvbTCC
AiIwDQYJKoZIhvcNAQEBBQADggIPADCCAgoCggIBALs38SQvg5Usv0ekoCyf4b/7
cPabBKDoO4FvyqYibWN1SLz6VykW9y8JUmzFUiB0myeZW1GF6u/JX3jJKbjMpKhG
wqNkQYSSNseoguK2XmcI1rs9NgYxEFN6WGZmiU1G0/Y+ONSE2WzElWieZrdHxmPc
NRxGPY7GlhOqZVM9dYR2r4XSb5d4D9KKwMs/hjAJD7+uMMsmBWEMrQdeM8yCu0ZJ
hqVuBxt4snF7Ae4Al6yBSYnfc6vXeI6jxXZc6f1IX6ZFuJcTalUFXuIARidnkwb7
kYNpx14SSc45ucppnw3/anm2a2+BbFHi0AGb+HslPglNAKqJfwDj+1w1GY3CESGH
HnoRvYiy3uq/oIv7DMNt4s4fbFtfSgXa//H9SvXeW9iTyhdr3IA+kW6XQ9tZ9YDB
ClQyzcO+h+mTFK7HKQGQ6BEyWRpzv0INxoIsiS5UZ8gqwzvO5sEJSK3To+GA+N9u
THhydttO2bn6W3yFc2TJI5SuXmNofx5j03iFRwvsUh4Cz3udlpxjT0b3eR6Q0yEY
hSYX8VEY1occm1AOcGvxCEG2PPz71x/xvS0+d7ZmkgqBAQ9KaGhpXA84s0ZoG1WZ
ZynRA/KlW/GOU+3HzHk4nI2mePQ+IyjuoNNVD8PwZMH75YVxsh5E0x14h3d24m9f
VGQUtC8UC6U9mPtomR8jAgMBAAGjggFRMIIBTTAJBgNVHRMEAjAAMB0GA1UdDgQW
BBQLU+J2QK1zxBJshc82W1/7bugDpzCB0AYDVR0jBIHIMIHFgBRpx4WAZOaQQOkw
aIgj0k277N+YmKGBoaSBnjCBmzELMAkGA1UEBhMCREUxDzANBgNVBAgMBkJlcmxp
bjEPMA0GA1UEBwwGQmVybGluMRgwFgYDVQQKDA9CaWdjaGFpbkRCIEdtYkgxEDAO
BgNVBAsMB1JPT1QtQ0ExGzAZBgNVBAMMElRlc3QgSW5mcmEgUm9vdCBDQTEhMB8G
CSqGSIb3DQEJARYSZGV2QGJpZ2NoYWluZGIuY29tggkA6AayySqcLvwwHQYDVR0l
BBYwFAYIKwYBBQUHAwEGCCsGAQUFBwMCMAsGA1UdDwQEAwIFoDAiBgNVHREEGzAZ
gglsb2NhbGhvc3SCDHRlc3QtbWRiLXNzbDANBgkqhkiG9w0BAQsFAAOCAgEATBQ+
a6/46GkRLhMSt5uRx2gBJgC4yDWL/tK7q0PReo4ksgjdGneR8Gg1Qla6/iY+keKM
wQHiZfc7Erp/HoqOW6HIKIwWuHIDMdZsLKyAbn1SJC5NC+aQ0X0YP+qff4U5hnc7
GT26sFcQFiX81r4Xe8SSDscYPGlI4HIsPkIvC3ACqMEEK9gAcrRnNdl5P5hxVZLm
+lEsQi9xxk+Yf9gsfBJwl63NkgpmgCrsrOabOgsnyuDMn7QH9Pr3YBc58UZG6+V4
KoSyeIfOc60gi1CM1cXNTLGWvmQk4KmBwwFRorFQIhWXWuZJ8x3xcj6PDYfpBcGS
jkvbG+K4PLQT3T3OTfgejnOuWja6vt0RfLix79KUhKfEDZYP4UZGu31RqWETmEey
aK2FDPkyCnZJIG80csoG/QVvFl0QZzxQBvPCvVjI9LOW3CgmYucwoAxA9nxQQiHI
4XNkG5x2Pngd6lT8YWw+J1nLxN2flL+1E4d5/ygam38vH5siHTD2yV9TbxqIOLBE
cXnapg8r50JxnDogf2u7k3G0bJ4qt/pXz4G9IesK24MHrP15y+/H/c3vIn9ncXzi
XECO8QbDdWdqcPSAs63GiTGbz4yuboX9UcZANKIMY1WE4akQAEgaZJWARQnSHT/i
bOHokihf2qFpEHQDH/FDxEP7AYB++wssYq3l8mE=
-----END CERTIFICATE-----
-----BEGIN PRIVATE KEY-----
MIIJQwIBADANBgkqhkiG9w0BAQEFAASCCS0wggkpAgEAAoICAQC7N/EkL4OVLL9H
pKAsn+G/+3D2mwSg6DuBb8qmIm1jdUi8+lcpFvcvCVJsxVIgdJsnmVtRhervyV94
ySm4zKSoRsKjZEGEkjbHqILitl5nCNa7PTYGMRBTelhmZolNRtP2PjjUhNlsxJVo
nma3R8Zj3DUcRj2OxpYTqmVTPXWEdq+F0m+XeA/SisDLP4YwCQ+/rjDLJgVhDK0H
XjPMgrtGSYalbgcbeLJxewHuAJesgUmJ33Or13iOo8V2XOn9SF+mRbiXE2pVBV7i
AEYnZ5MG+5GDacdeEknOObnKaZ8N/2p5tmtvgWxR4tABm/h7JT4JTQCqiX8A4/tc
NRmNwhEhhx56Eb2Ist7qv6CL+wzDbeLOH2xbX0oF2v/x/Ur13lvYk8oXa9yAPpFu
l0PbWfWAwQpUMs3DvofpkxSuxykBkOgRMlkac79CDcaCLIkuVGfIKsM7zubBCUit
06PhgPjfbkx4cnbbTtm5+lt8hXNkySOUrl5jaH8eY9N4hUcL7FIeAs97nZacY09G
93kekNMhGIUmF/FRGNaHHJtQDnBr8QhBtjz8+9cf8b0tPne2ZpIKgQEPSmhoaVwP
OLNGaBtVmWcp0QPypVvxjlPtx8x5OJyNpnj0PiMo7qDTVQ/D8GTB++WFcbIeRNMd
eId3duJvX1RkFLQvFAulPZj7aJkfIwIDAQABAoICAAI7J2+D9XB4qQrkhlghy6Hr
ECyQKlz0h4kCWQrjzCPsSOKfpRxDPszbspTDQThLy3GMXU86ZlNXNgENfKbMIYYz
2avyzOkUiPyWIIEtJTDbJRv0HcmzGfu0sIr/29EE8A+2LB00PBcUvKcThCvY+h9E
h4l/uMoTycQQOsbkK5tZgrv4hwXqE14x8xw49JNr+DkTjVdOa6/9Y657y+g7AppS
0/zys7j7Fj1N9vbsIOKYY9T1yb4ZgkFI6FiBwPQYwbMMj6eVPqYmuzu8PxnHHTRv
GQvU3eBcHW8Mtw8XdSLIkW9D4kHg6/aJ2mq6fhqRlgysUz61BsNu9BbkNxq+Xk/f
wU+Slo0UcnuU49icYo8J2yPULUgQaP4VdJc7tb9kMpklTUG7YaD5oqKX+I/jWS9U
Mta1h3GoK2zK9pj2B5YyCoUsM8o4EEb3hZ8FYf0DOuVd9XcWxLUDRGQoTWJptcSW
o5OHaP2tgcUtq6siiqPXIQQr1Yji/geSFTP/hWOZC4AFgwa9XvboD3PcKsG2gIc8
I/HLF5tCpUXIAW4wluXQv1MveX9xwaez+PGLTIFCHidgOBmC5jZEijG9PUgRk1D1
e8CUT9Vc3zxS/9S+RfSwXMEBX9367edoiNw1MuXvR1nwCFYKthONx8ww1psEoISF
9ZMbdac3hwqeqSW34ZoJAoIBAQDfOF6D1vWieXwQ7W3KpAxyHlNVN8tus3w+mDBc
unv3Nsn5gmDYHc/Iu5/Tyk2zgoEsfN1LZgzjmSBCUgJOz09+8yrdpsTI4awXAwoa
kaczRcutjAG5vHhHXi5+iwqAaPSTBYcAD2d5SGtxpWBJ2qywT3DMWFT25bhRj3Bp
mc3Fe6oxbz2QV2Is2SnnCnPc/Ok7cABwaP1mc3PsIZzswuJjq3JWsMAlBMZueQW1
CxI639j2memt7ZSWU0UDLg4RAPOtcSt/NykbZgAlfQoLiKWv2hhdvip+oPsdOiDd
tYmeoseRd/7Ef8EdSwvSDh1jTugu6PG0NeK0Gfxs5Ipb1eBvAoIBAQDWtiTD8dP3
TNbLu3nkopgJJe9gn1dVhvhBY0T4ar9pR1yl8s5L13vtmrs5wQ5/vyZ2A39OR4fH
5PcT/gcPm4GuE1BL29NBz88Qdz6033hOuY4SvZpf94yeDhY2w2Gfzm0uewGDR0z+
EOsSGnnpEYvr+Bkdcvj3CP0ksiQPa/mAnmEhVvthlavyKhfxvwNyh07qym8Q8r3R
BiwChB/zGo6V1sSfPexy0I9kPhXByYyxoADn/lgXKXtnXpP7fuQleztPC+84bNpa
PFo5QnzG2kq+XwTP0Z3kQiZ2hEg+nGWHa7MpG+Ic7sDZE2MPbpUAY59J9HBmJOtK
jaMDQpN1OJ6NAoIBAQCR5ZMJEu/bsRGhMr5nC1BDKoUHFv+1LEUR2IELqqupyjq7
BTdtKhcMOW3ejMS6hpsNS9OMG3hjLkuCbX2qqx9nd2JWG1FVhwLmy4rIENk6zuyw
Uukxz/jBlNJIzXIgufjZO2ygYnEcOXRYhGHqA66JUnMEbNujwEP3swwjSW7QG+MC
ipWviR3W+F3F7/QIxZlfyvXOgyDU3LMw7EtYCIzV3lJOTRpZV8Smoh1T1pekuXhi
vfiZQMa0dlqOGIUDIh8jBuwKKzCIAuQnnJF7NmYtCRyR8OBvgaJ/2OVwY94+PGC6
OLbhEitTjSB9u9IDfaiOOJz6T5oMY0u0lK/GFIWrAoIBAQCkpr8g6ATlYy5gw57g
/vLaKRYdoXOmqb8c3ZRZb/rjMA9TTxR2QoPNnNewnWSSADLtUxdAH0h3uRTkZuxh
Qp46sKLl2Why0np2pQsYRzqKHG9f3bhRmZNi7WiJjGED3JgLidaKJpZbSvwJQPZ2
DbegN/yCgdV8E4+UoWtXzDRkNpBDseFKXy2hojgEcbeiDzMsiBqOA6geb742G74o
fhgTvcPAXgtBrMAZXibvGbFj0VCAl6JT+MKibXvL4+3u9EZyArPrMEZt5lRGDr+C
+olQ3arh91w+W6AFSMHiCasuIyAcCT7ncwu+K8jOX72xs7PGUcYT/oHVBTKZ4GcW
AFpNAoIBAB/F8olQT10+QCZciP1ZuRpdEbEheWAF9ng3E7r7wAQiWNoLHj10Nu3H
byHPMmXNsw2VwaHqrAb5nTl5hfpk/ph7SidxMyNbtjCAlYm7XCiSMLLj0v5sFyCc
wgZqXzttQ6NRKt90JeIvHiazP7SVrmCyU/RhMlufiyX5zvivOgdtQA+0ISFDGdcX
MgwLTdFci9RaS5WDYsvokcc/5xEP4bZnxgEbmVq19mIC8QrCdH7qh/KP9Psb2tIt
OGwGA/YSMeQysKjUqAb/mcaMYEf2GUwWY6mZfRfLbeTT8yeDKFvAx5IUIz5tkFD/
nMEENsuszPYolIDIv8pISWC8yCsWn5w=
-----END PRIVATE KEY-----
