Certificate:
    Data:
        Version: 3 (0x2)
        Serial Number: 2 (0x2)
    Signature Algorithm: sha256WithRSAEncryption
        Issuer: C=DE, ST=Berlin, L=Berlin, O=BigchainDB GmbH, OU=ROOT-CA, CN=Test Infra Root CA/emailAddress=dev@bigchaindb.com
        Validity
            Not Before: Jun 13 14:44:30 2017 GMT
            Not After : Jun 11 14:44:30 2027 GMT
        Subject: C=DE, ST=Berlin, L=Berlin, O=BigchainDB GmbH, OU=BigchainDB-Instance, CN=test-bdb-ssl/emailAddress=dev@bigchaindb.com
        Subject Public Key Info:
            Public Key Algorithm: rsaEncryption
                Public-Key: (4096 bit)
                Modulus:
                    00:cb:8b:a5:98:f8:cb:ab:f0:c3:e3:8a:b1:92:ba:
                    c3:45:e0:1e:ed:d8:f2:a8:39:02:fd:8f:0f:e1:c9:
                    9d:79:0c:38:38:df:a7:ef:6d:10:32:5a:1f:c8:d8:
                    ef:ea:a3:51:40:c3:a0:9b:67:f5:91:43:4f:05:fb:
                    b3:05:9a:01:47:88:53:2d:a0:67:fd:0e:1d:a3:9c:
                    de:1f:48:9e:e7:9f:6a:cc:04:d2:9e:36:90:e0:52:
                    01:11:31:6f:db:5a:aa:4e:3d:83:5c:b8:31:7d:8d:
                    06:8f:c1:f8:71:9e:71:a1:ee:54:8e:6c:77:5f:b4:
                    69:4a:2d:df:8d:6a:d3:02:26:91:3a:2e:9a:58:61:
                    6b:18:1a:ac:7b:c6:e4:b7:4d:ca:af:97:14:af:fa:
                    16:87:78:50:98:d4:d1:50:3e:e6:d1:c2:d8:85:ee:
                    06:5b:2d:43:8d:d8:3d:22:6d:28:59:52:44:79:e5:
                    49:58:82:1a:0e:7f:06:80:85:79:52:1a:c1:c0:32:
                    d2:28:c7:b9:c0:67:9d:5c:b3:13:08:07:95:d6:91:
                    87:6e:f8:53:7a:fa:67:d5:c8:07:91:d9:46:03:45:
                    9e:b1:be:f7:78:fb:9a:a5:73:41:cf:b5:02:73:ed:
                    d5:a8:da:77:bd:3c:cf:e8:e5:dc:1f:cf:d6:93:e9:
                    50:d4:76:f2:53:ec:a8:7d:7b:a7:84:4c:95:00:3e:
                    ab:f4:8e:0b:b1:2a:ef:7d:a1:66:d6:a1:f0:21:5c:
                    0f:94:0a:12:de:82:65:55:14:47:37:61:cf:68:12:
                    13:c1:f1:7b:14:5f:5c:ff:cf:b1:68:37:d6:75:5a:
                    7d:cc:6c:22:e6:34:07:d1:2e:66:a7:6a:1e:9f:ee:
                    e9:b8:5d:da:a2:25:1b:00:70:a9:65:8d:66:54:42:
                    49:85:fa:07:56:b4:77:26:af:70:4b:4f:ed:74:68:
                    72:d4:f5:f9:ea:cc:23:a3:d6:8c:39:a2:79:f6:8c:
                    64:4c:e3:75:17:86:6f:f1:e1:de:33:ec:28:89:e3:
                    3b:a1:73:c9:da:57:fa:9c:cc:8b:51:63:10:26:f3:
                    27:9a:c0:e2:67:2d:52:e7:41:a0:7e:6b:6d:7c:3d:
                    cc:4a:51:8a:62:c5:17:9c:88:c2:5f:38:a2:8d:ba:
                    bb:6f:82:11:e3:6c:ec:af:58:f8:06:b0:2d:02:4f:
                    dd:73:81:69:3f:cc:76:72:a1:db:73:43:8c:97:39:
                    30:49:d2:9a:77:30:49:21:85:32:0a:6a:37:bf:09:
                    06:60:a3:0f:e5:ba:f5:07:2a:34:e5:3b:07:1d:10:
                    c1:c0:38:bc:95:dc:81:b2:89:ab:d5:17:9c:21:c3:
                    1a:b2:61
                Exponent: 65537 (0x10001)
        X509v3 extensions:
            X509v3 Basic Constraints:
                CA:FALSE
            X509v3 Subject Key Identifier:
                B7:F5:E7:0E:F8:D8:FE:A1:56:5B:EA:80:2F:18:71:C2:44:0C:91:D0
            X509v3 Authority Key Identifier:
                keyid:69:C7:85:80:64:E6:90:40:E9:30:68:88:23:D2:4D:BB:EC:DF:98:98
                DirName:/C=DE/ST=Berlin/L=Berlin/O=BigchainDB GmbH/OU=ROOT-CA/CN=Test Infra Root CA/emailAddress=dev@bigchaindb.com
                serial:E8:06:B2:C9:2A:9C:2E:FC

            X509v3 Extended Key Usage:
                TLS Web Client Authentication
            X509v3 Key Usage:
                Digital Signature
    Signature Algorithm: sha256WithRSAEncryption
         78:44:00:be:10:3b:f3:40:e1:5e:e4:3a:64:99:13:71:1d:91:
         96:f6:f1:0f:db:99:6c:65:c3:be:c9:0d:d7:a1:c8:7c:09:e6:
         56:5b:32:44:5f:e8:00:27:b5:20:28:d9:19:5a:74:21:4f:1a:
         ef:5a:e9:cc:f4:97:f1:9f:97:9b:45:35:cb:df:27:6a:75:ce:
         9e:0e:11:be:03:fa:1a:91:77:9d:7d:6a:76:59:6b:98:96:09:
         21:cd:ca:54:1e:1f:75:58:68:5d:af:c2:8a:18:c5:56:d9:56:
         39:c6:a7:2a:a4:0e:0b:88:7e:55:72:7f:ec:07:0d:7f:7a:c0:
         14:8f:44:f4:cc:3b:30:97:8a:98:e2:da:7e:88:b8:a5:93:4c:
         f4:92:e1:e8:84:60:bc:f9:e4:55:0f:68:ba:34:70:4f:9f:47:
         63:c1:2f:96:78:ab:43:80:87:f2:0d:10:57:a0:a0:8c:d4:93:
         c3:89:ef:f0:2f:58:63:53:8c:1e:29:4c:a5:88:ec:56:af:22:
         65:54:77:6c:f8:cd:68:2d:34:f7:71:cf:12:6e:ba:50:8f:30:
         a0:05:31:e7:32:27:29:e5:1b:a9:40:3c:49:45:a3:8e:2d:10:
         0b:b4:da:f5:73:e7:aa:d1:c7:a8:a6:f5:32:4a:33:f3:60:3d:
         72:4e:b9:1e:15:e9:7d:0c:a9:f8:57:72:2b:60:24:18:47:5b:
         34:f5:25:ef:93:10:4a:0b:ed:e8:39:2e:d8:9e:bd:32:67:ce:
         7c:c7:a4:0e:5f:03:1e:8d:4a:7f:ac:7f:4e:7b:f8:26:44:1c:
         9f:6b:a0:9e:4d:90:31:13:8a:46:5f:87:9e:bc:06:f2:b6:e5:
         6b:75:d1:f3:c0:4d:fe:c5:16:34:35:ce:6e:31:f3:1f:cd:4e:
         13:5d:0a:84:00:cc:72:b5:ef:a4:90:74:70:53:9b:6c:b3:58:
         5e:3b:ba:5b:ff:4c:fe:47:7e:20:1c:83:04:57:7a:a5:08:ed:
         29:51:11:e0:a5:81:92:b5:4f:32:74:35:be:8a:c6:82:7a:50:
         45:f9:ee:57:62:a5:41:57:dc:3d:f7:bd:17:59:2d:53:2c:d0:
         81:76:e8:1b:64:bd:80:94:eb:b1:f6:0f:8f:c7:50:cb:c4:c2:
         33:b0:78:78:d4:61:d2:d7:54:0a:71:24:59:0f:30:23:8c:45:
         d6:b9:f1:5c:99:eb:20:11:2f:ca:36:39:36:72:e9:f5:24:47:
         54:54:20:4d:1d:aa:cd:ec:ec:4b:89:2b:67:00:62:64:2c:05:
         19:6c:91:72:01:bb:04:0c:f0:e1:27:5e:c9:9b:f1:41:09:8a:
         dc:62:85:a0:87:c8:d5:ab
-----BEGIN CERTIFICATE-----
MIIG3jCCBMagAwIBAgIBAjANBgkqhkiG9w0BAQsFADCBmzELMAkGA1UEBhMCREUx
DzANBgNVBAgMBkJlcmxpbjEPMA0GA1UEBwwGQmVybGluMRgwFgYDVQQKDA9CaWdj
aGFpbkRCIEdtYkgxEDAOBgNVBAsMB1JPT1QtQ0ExGzAZBgNVBAMMElRlc3QgSW5m
cmEgUm9vdCBDQTEhMB8GCSqGSIb3DQEJARYSZGV2QGJpZ2NoYWluZGIuY29tMB4X
DTE3MDYxMzE0NDQzMFoXDTI3MDYxMTE0NDQzMFowgaExCzAJBgNVBAYTAkRFMQ8w
DQYDVQQIDAZCZXJsaW4xDzANBgNVBAcMBkJlcmxpbjEYMBYGA1UECgwPQmlnY2hh
aW5EQiBHbWJIMRwwGgYDVQQLDBNCaWdjaGFpbkRCLUluc3RhbmNlMRUwEwYDVQQD
DAx0ZXN0LWJkYi1zc2wxITAfBgkqhkiG9w0BCQEWEmRldkBiaWdjaGFpbmRiLmNv
bTCCAiIwDQYJKoZIhvcNAQEBBQADggIPADCCAgoCggIBAMuLpZj4y6vww+OKsZK6
w0XgHu3Y8qg5Av2PD+HJnXkMODjfp+9tEDJaH8jY7+qjUUDDoJtn9ZFDTwX7swWa
AUeIUy2gZ/0OHaOc3h9InuefaswE0p42kOBSARExb9taqk49g1y4MX2NBo/B+HGe
caHuVI5sd1+0aUot341q0wImkToumlhhaxgarHvG5LdNyq+XFK/6Fod4UJjU0VA+
5tHC2IXuBlstQ43YPSJtKFlSRHnlSViCGg5/BoCFeVIawcAy0ijHucBnnVyzEwgH
ldaRh274U3r6Z9XIB5HZRgNFnrG+93j7mqVzQc+1AnPt1ajad708z+jl3B/P1pPp
UNR28lPsqH17p4RMlQA+q/SOC7Eq732hZtah8CFcD5QKEt6CZVUURzdhz2gSE8Hx
exRfXP/PsWg31nVafcxsIuY0B9EuZqdqHp/u6bhd2qIlGwBwqWWNZlRCSYX6B1a0
dyavcEtP7XRoctT1+erMI6PWjDmiefaMZEzjdReGb/Hh3jPsKInjO6FzydpX+pzM
i1FjECbzJ5rA4mctUudBoH5rbXw9zEpRimLFF5yIwl84oo26u2+CEeNs7K9Y+Aaw
LQJP3XOBaT/MdnKh23NDjJc5MEnSmncwSSGFMgpqN78JBmCjD+W69QcqNOU7Bx0Q
wcA4vJXcgbKJq9UXnCHDGrJhAgMBAAGjggEjMIIBHzAJBgNVHRMEAjAAMB0GA1Ud
DgQWBBS39ecO+Nj+oVZb6oAvGHHCRAyR0DCB0AYDVR0jBIHIMIHFgBRpx4WAZOaQ
QOkwaIgj0k277N+YmKGBoaSBnjCBmzELMAkGA1UEBhMCREUxDzANBgNVBAgMBkJl
cmxpbjEPMA0GA1UEBwwGQmVybGluMRgwFgYDVQQKDA9CaWdjaGFpbkRCIEdtYkgx
EDAOBgNVBAsMB1JPT1QtQ0ExGzAZBgNVBAMMElRlc3QgSW5mcmEgUm9vdCBDQTEh
MB8GCSqGSIb3DQEJARYSZGV2QGJpZ2NoYWluZGIuY29tggkA6AayySqcLvwwEwYD
VR0lBAwwCgYIKwYBBQUHAwIwCwYDVR0PBAQDAgeAMA0GCSqGSIb3DQEBCwUAA4IC
AQB4RAC+EDvzQOFe5DpkmRNxHZGW9vEP25lsZcO+yQ3Xoch8CeZWWzJEX+gAJ7Ug
KNkZWnQhTxrvWunM9Jfxn5ebRTXL3ydqdc6eDhG+A/oakXedfWp2WWuYlgkhzcpU
Hh91WGhdr8KKGMVW2VY5xqcqpA4LiH5Vcn/sBw1/esAUj0T0zDswl4qY4tp+iLil
k0z0kuHohGC8+eRVD2i6NHBPn0djwS+WeKtDgIfyDRBXoKCM1JPDie/wL1hjU4we
KUyliOxWryJlVHds+M1oLTT3cc8SbrpQjzCgBTHnMicp5RupQDxJRaOOLRALtNr1
c+eq0ceopvUySjPzYD1yTrkeFel9DKn4V3IrYCQYR1s09SXvkxBKC+3oOS7Ynr0y
Z858x6QOXwMejUp/rH9Oe/gmRByfa6CeTZAxE4pGX4eevAbytuVrddHzwE3+xRY0
Nc5uMfMfzU4TXQqEAMxyte+kkHRwU5tss1heO7pb/0z+R34gHIMEV3qlCO0pURHg
pYGStU8ydDW+isaCelBF+e5XYqVBV9w9970XWS1TLNCBdugbZL2AlOux9g+Px1DL
xMIzsHh41GHS11QKcSRZDzAjjEXWufFcmesgES/KNjk2cun1JEdUVCBNHarN7OxL
iStnAGJkLAUZbJFyAbsEDPDhJ17Jm/FBCYrcYoWgh8jVqw==
-----END CERTIFICATE-----
