Certificate:
    Data:
        Version: 3 (0x2)
        Serial Number: 4 (0x4)
    Signature Algorithm: sha256WithRSAEncryption
        Issuer: C=DE, ST=Berlin, L=Berlin, O=BigchainDB GmbH, OU=ROOT-CA, CN=Test Infra Root CA/emailAddress=dev@bigchaindb.com
        Validity
            Not Before: Jun 14 12:45:09 2017 GMT
            Not After : Jun 12 12:45:09 2027 GMT
        Subject: C=DE, ST=Berlin, L=Berlin, O=BigchainDB GmbH, OU=MongoDB-Bak-Instance, CN=test-mdb-bak-ssl/emailAddress=dev@bigchaindb.com
        Subject Public Key Info:
            Public Key Algorithm: rsaEncryption
                Public-Key: (4096 bit)
                Modulus:
                    00:9e:49:0d:d6:44:06:db:ad:bd:24:0c:d4:d2:f6:
                    0e:e9:14:5a:52:b7:3d:72:97:ae:1c:b4:dd:6c:a6:
                    2b:46:94:a9:60:29:8a:15:75:3d:35:66:a1:7e:3c:
                    a7:09:38:4d:30:4a:5f:d1:01:22:a5:b0:f0:43:ed:
                    9e:e8:6d:b5:4b:da:3d:50:d7:67:c3:bc:a2:08:72:
                    2f:fe:18:54:2a:2e:a8:6b:f4:ca:fb:4a:50:f0:48:
                    c3:97:62:b7:f5:a0:a2:50:2b:c5:b3:ed:6f:b4:86:
                    09:a6:67:68:1f:28:69:d4:0e:73:c1:a2:6c:25:a5:
                    55:37:8c:7e:a4:9e:aa:83:8d:9c:b6:29:19:6f:e9:
                    86:58:9f:34:8b:92:39:9a:4d:ac:2f:1b:ee:43:a8:
                    25:dc:d6:82:63:65:e6:f9:71:ea:69:ac:4f:1b:9f:
                    96:ba:21:88:db:7b:87:4a:5c:84:4a:d6:39:3c:1f:
                    ea:e7:3a:9e:e0:31:32:e9:3d:48:da:0d:6d:47:74:
                    2c:58:e6:ad:65:10:b8:64:7b:80:cb:b0:a2:f4:a6:
                    16:27:b0:84:6e:09:c6:30:a3:b7:fa:34:7a:96:5d:
                    61:71:7d:7d:dc:c8:69:9d:4c:2f:b6:a1:20:31:99:
                    b1:96:9a:9e:be:f4:ec:da:2a:6c:3a:0a:e4:94:ef:
                    67:a5:f4:7c:ae:15:f2:67:8b:f4:f4:18:32:1e:7f:
                    87:79:e7:87:a0:74:99:57:f2:44:62:fe:93:93:21:
                    13:b5:98:dd:fb:98:67:e0:8f:e3:19:36:0b:9e:5b:
                    67:a0:37:77:62:78:9b:6c:be:79:13:bd:79:ae:34:
                    b7:92:f1:8f:17:9c:0b:6a:42:9a:ed:23:e4:71:0d:
                    e6:f3:6d:9c:58:54:88:2f:ed:85:a3:5c:a4:38:6d:
                    a3:b9:bc:ba:56:ad:f8:2c:fa:8c:e8:83:de:1b:af:
                    11:88:e9:81:08:c8:d4:03:68:d4:e7:11:c7:e6:1d:
                    93:7f:02:2c:3d:42:e3:bb:f1:68:70:21:95:87:db:
                    c5:c8:43:64:d5:d9:10:94:cb:e4:17:e3:5c:21:38:
                    fb:9c:96:69:da:24:e3:59:e8:d9:f3:41:45:04:8a:
                    04:c8:bd:04:85:7a:9c:72:9f:5d:34:38:1d:1c:26:
                    85:6c:c3:1c:6d:df:6b:44:a4:ac:f7:27:0d:8f:1a:
                    9b:d2:53:5c:15:bd:1e:f1:de:f1:45:d7:96:d0:50:
                    0a:43:3b:53:ea:1a:8d:67:ad:68:d0:57:dc:3c:f5:
                    63:fb:0e:ff:b2:cf:59:30:d5:12:bc:2c:62:00:cf:
                    c3:ae:ea:20:04:c1:67:e0:3f:92:99:e5:04:cc:7b:
                    a6:7f:b9
                Exponent: 65537 (0x10001)
        X509v3 extensions:
            X509v3 Basic Constraints: 
                CA:FALSE
            X509v3 Subject Key Identifier: 
                95:F3:A7:FB:99:C6:9D:91:36:06:51:31:39:EC:37:42:89:07:AB:31
            X509v3 Authority Key Identifier: 
                keyid:69:C7:85:80:64:E6:90:40:E9:30:68:88:23:D2:4D:BB:EC:DF:98:98
                DirName:/C=DE/ST=Berlin/L=Berlin/O=BigchainDB GmbH/OU=ROOT-CA/CN=Test Infra Root CA/emailAddress=dev@bigchaindb.com
                serial:E8:06:B2:C9:2A:9C:2E:FC

            X509v3 Extended Key Usage: 
                TLS Web Client Authentication
            X509v3 Key Usage: 
                Digital Signature
    Signature Algorithm: sha256WithRSAEncryption
         5b:42:f5:e9:cc:2a:40:8a:53:29:d9:67:2b:5d:df:25:b8:08:
         6f:6f:0f:d4:e1:b7:60:eb:d4:04:d4:3c:49:62:a5:78:59:48:
         d6:4b:c3:24:04:86:51:99:01:6f:f5:ce:a1:b8:c0:d5:56:4a:
         23:86:f9:22:e6:42:3b:39:8b:66:64:21:f6:72:6b:77:79:4b:
         9f:3e:ec:0e:ba:cf:bd:72:73:02:66:bf:cf:e8:b2:75:ee:07:
         28:ae:26:98:b8:40:ec:dc:d5:12:27:27:34:3e:4f:55:b6:36:
         e0:3b:58:ec:2d:fa:59:e3:c1:ec:16:93:8d:72:f6:ad:f8:dd:
         59:6e:c2:cb:51:82:f1:fc:b6:7e:67:61:f7:81:76:9d:a7:83:
         52:06:cb:b7:fe:52:f4:2a:bc:62:66:16:4b:bd:03:13:7f:e0:
         f1:7e:c4:67:e4:9a:d4:1f:bf:a2:a1:f9:2a:8b:bd:d1:06:35:
         16:97:7b:93:fa:3e:e0:df:4f:60:60:74:ef:18:0c:69:10:61:
         17:4a:8b:d7:4d:0b:83:6c:de:c3:ca:34:ad:02:35:34:e5:2c:
         15:28:4c:ff:5b:e7:27:eb:87:c9:88:21:3e:ed:b3:4e:cc:80:
         2f:fe:87:e4:c7:d8:7c:5d:61:79:db:49:bc:f6:60:28:97:0d:
         17:0e:f4:7d:3a:ca:bc:d1:f2:62:70:a9:19:8b:f8:74:1e:c4:
         10:f9:7a:62:d0:65:d3:00:f4:3d:08:11:5c:d5:d0:97:3e:52:
         0c:51:1a:e6:71:bf:d9:25:c7:38:b7:d1:17:04:c3:a3:74:34:
         51:7e:3d:78:3f:e7:c9:e7:e2:37:db:33:43:26:ca:7f:2c:d5:
         cd:fc:55:2d:3f:1e:7b:95:af:44:ca:b6:9f:0e:02:d3:62:e6:
         1f:96:a6:b2:0d:de:0b:31:b6:4f:de:a8:63:85:8c:c2:5d:89:
         f9:ba:b2:e9:41:19:60:3b:06:18:c5:f6:9f:8c:f9:fa:36:18:
         16:3b:c4:8a:60:5e:7c:06:8c:f3:3a:c0:25:bc:3f:fc:f1:5d:
         a3:81:a4:6a:48:05:f3:0b:cb:f7:45:87:4b:32:5f:b2:d4:5c:
         85:36:ec:3f:aa:23:81:fe:ce:75:7d:54:12:87:b0:95:a7:57:
         81:c5:4b:f3:d9:9a:d2:fb:af:bb:a7:6a:b2:23:92:1d:28:8f:
         a7:21:bd:3c:21:fb:39:fd:73:06:84:d2:9c:6b:06:c9:3f:22:
         9d:dc:a8:74:9b:76:8d:e3:09:9d:ef:02:18:9b:1e:52:69:eb:
         be:1b:bb:73:e2:36:06:4b:27:ad:0f:87:66:cc:36:81:5a:55:
         e1:7b:7b:d0:4d:2f:55:95
-----BEGIN CERTIFICATE-----
MIIG4zCCBMugAwIBAgIBBDANBgkqhkiG9w0BAQsFADCBmzELMAkGA1UEBhMCREUx
DzANBgNVBAgMBkJlcmxpbjEPMA0GA1UEBwwGQmVybGluMRgwFgYDVQQKDA9CaWdj
aGFpbkRCIEdtYkgxEDAOBgNVBAsMB1JPT1QtQ0ExGzAZBgNVBAMMElRlc3QgSW5m
cmEgUm9vdCBDQTEhMB8GCSqGSIb3DQEJARYSZGV2QGJpZ2NoYWluZGIuY29tMB4X
DTE3MDYxNDEyNDUwOVoXDTI3MDYxMjEyNDUwOVowgaYxCzAJBgNVBAYTAkRFMQ8w
DQYDVQQIDAZCZXJsaW4xDzANBgNVBAcMBkJlcmxpbjEYMBYGA1UECgwPQmlnY2hh
aW5EQiBHbWJIMR0wGwYDVQQLDBRNb25nb0RCLUJhay1JbnN0YW5jZTEZMBcGA1UE
AwwQdGVzdC1tZGItYmFrLXNzbDEhMB8GCSqGSIb3DQEJARYSZGV2QGJpZ2NoYWlu
ZGIuY29tMIICIjANBgkqhkiG9w0BAQEFAAOCAg8AMIICCgKCAgEAnkkN1kQG2629
JAzU0vYO6RRaUrc9cpeuHLTdbKYrRpSpYCmKFXU9NWahfjynCThNMEpf0QEipbDw
Q+2e6G21S9o9UNdnw7yiCHIv/hhUKi6oa/TK+0pQ8EjDl2K39aCiUCvFs+1vtIYJ
pmdoHyhp1A5zwaJsJaVVN4x+pJ6qg42ctikZb+mGWJ80i5I5mk2sLxvuQ6gl3NaC
Y2Xm+XHqaaxPG5+WuiGI23uHSlyEStY5PB/q5zqe4DEy6T1I2g1tR3QsWOatZRC4
ZHuAy7Ci9KYWJ7CEbgnGMKO3+jR6ll1hcX193MhpnUwvtqEgMZmxlpqevvTs2ips
OgrklO9npfR8rhXyZ4v09BgyHn+HeeeHoHSZV/JEYv6TkyETtZjd+5hn4I/jGTYL
nltnoDd3YnibbL55E715rjS3kvGPF5wLakKa7SPkcQ3m822cWFSIL+2Fo1ykOG2j
uby6Vq34LPqM6IPeG68RiOmBCMjUA2jU5xHH5h2TfwIsPULju/FocCGVh9vFyENk
1dkQlMvkF+NcITj7nJZp2iTjWejZ80FFBIoEyL0EhXqccp9dNDgdHCaFbMMcbd9r
RKSs9ycNjxqb0lNcFb0e8d7xRdeW0FAKQztT6hqNZ61o0FfcPPVj+w7/ss9ZMNUS
vCxiAM/DruogBMFn4D+SmeUEzHumf7kCAwEAAaOCASMwggEfMAkGA1UdEwQCMAAw
HQYDVR0OBBYEFJXzp/uZxp2RNgZRMTnsN0KJB6sxMIHQBgNVHSMEgcgwgcWAFGnH
hYBk5pBA6TBoiCPSTbvs35iYoYGhpIGeMIGbMQswCQYDVQQGEwJERTEPMA0GA1UE
CAwGQmVybGluMQ8wDQYDVQQHDAZCZXJsaW4xGDAWBgNVBAoMD0JpZ2NoYWluREIg
R21iSDEQMA4GA1UECwwHUk9PVC1DQTEbMBkGA1UEAwwSVGVzdCBJbmZyYSBSb290
IENBMSEwHwYJKoZIhvcNAQkBFhJkZXZAYmlnY2hhaW5kYi5jb22CCQDoBrLJKpwu
/DATBgNVHSUEDDAKBggrBgEFBQcDAjALBgNVHQ8EBAMCB4AwDQYJKoZIhvcNAQEL
BQADggIBAFtC9enMKkCKUynZZytd3yW4CG9vD9Tht2Dr1ATUPElipXhZSNZLwyQE
hlGZAW/1zqG4wNVWSiOG+SLmQjs5i2ZkIfZya3d5S58+7A66z71ycwJmv8/osnXu
ByiuJpi4QOzc1RInJzQ+T1W2NuA7WOwt+lnjwewWk41y9q343VluwstRgvH8tn5n
YfeBdp2ng1IGy7f+UvQqvGJmFku9AxN/4PF+xGfkmtQfv6Kh+SqLvdEGNRaXe5P6
PuDfT2BgdO8YDGkQYRdKi9dNC4Ns3sPKNK0CNTTlLBUoTP9b5yfrh8mIIT7ts07M
gC/+h+TH2HxdYXnbSbz2YCiXDRcO9H06yrzR8mJwqRmL+HQexBD5emLQZdMA9D0I
EVzV0Jc+UgxRGuZxv9klxzi30RcEw6N0NFF+PXg/58nn4jfbM0Mmyn8s1c38VS0/
HnuVr0TKtp8OAtNi5h+WprIN3gsxtk/eqGOFjMJdifm6sulBGWA7BhjF9p+M+fo2
GBY7xIpgXnwGjPM6wCW8P/zxXaOBpGpIBfMLy/dFh0syX7LUXIU27D+qI4H+znV9
VBKHsJWnV4HFS/PZmtL7r7unarIjkh0oj6chvTwh+zn9cwaE0pxrBsk/Ip3cqHSb
do3jCZ3vAhibHlJp674bu3PiNgZLJ60Ph2bMNoFaVeF7e9BNL1WV
-----END CERTIFICATE-----
-----BEGIN PRIVATE KEY-----
MIIJQQIBADANBgkqhkiG9w0BAQEFAASCCSswggknAgEAAoICAQCeSQ3WRAbbrb0k
DNTS9g7pFFpStz1yl64ctN1spitGlKlgKYoVdT01ZqF+PKcJOE0wSl/RASKlsPBD
7Z7obbVL2j1Q12fDvKIIci/+GFQqLqhr9Mr7SlDwSMOXYrf1oKJQK8Wz7W+0hgmm
Z2gfKGnUDnPBomwlpVU3jH6knqqDjZy2KRlv6YZYnzSLkjmaTawvG+5DqCXc1oJj
Zeb5cepprE8bn5a6IYjbe4dKXIRK1jk8H+rnOp7gMTLpPUjaDW1HdCxY5q1lELhk
e4DLsKL0phYnsIRuCcYwo7f6NHqWXWFxfX3cyGmdTC+2oSAxmbGWmp6+9OzaKmw6
CuSU72el9HyuFfJni/T0GDIef4d554egdJlX8kRi/pOTIRO1mN37mGfgj+MZNgue
W2egN3dieJtsvnkTvXmuNLeS8Y8XnAtqQprtI+RxDebzbZxYVIgv7YWjXKQ4baO5
vLpWrfgs+ozog94brxGI6YEIyNQDaNTnEcfmHZN/Aiw9QuO78WhwIZWH28XIQ2TV
2RCUy+QX41whOPuclmnaJONZ6NnzQUUEigTIvQSFepxyn100OB0cJoVswxxt32tE
pKz3Jw2PGpvSU1wVvR7x3vFF15bQUApDO1PqGo1nrWjQV9w89WP7Dv+yz1kw1RK8
LGIAz8Ou6iAEwWfgP5KZ5QTMe6Z/uQIDAQABAoICADsiR80YtQc1LUhektQNoRxq
wiPM2WQKTr3ixCZnHhvMRkrque+yUR+2K/chabYEFrJH1uwaZHtKUzjNeWSUN/sS
mX2uO9HgkxhcsJlZNXhc3gcW+Q5QgVSDmq7f7qIRVRJmiAHkXqsuuEQ2tauOSZsz
mwNoTsbxsZiDIH0X2dQz/6v+RsaMk+hf8h2Cj4qaIg2nfahBFYQfj67azyO57z1z
ZkqHoKQBC0QULkMVtUbQKanQss2YFOrk9oQ0pRbxlTXwrPC5nWX4jSrdCQ0P/JEx
y20ggRkrBaP+Rilvmay7TkA8Bd2J8gsV/21XXNOq+7GsKkpk7mfDGZPFpggOOMYs
xmp9rCZ+/0wpGQ130/ks3bQRHeVXQ0WuEXrmkdHhyyRycYocDfUhC4YB5NJOhI8H
Xl/ScebL3xwl56CNbfdyG6VeAqpJk6qxoklMw+zWJQeHtaHkXObWSSORf0KCAHV7
5/FWH7QP93g3X4r9Cq0zVI0e9ImC81azxj335bWpZi63YTvZriStak2ucfkBPXof
zTQHVi47E8fOG6HjEQYLM/FohXRxSKodBruKEKZlzqGLaSVlfj25v1l61mS4Owjj
2VWEuCraGixRIfawK6CtuS6ZRCLZyuVISul0Xhmm9EJ9rrqaJS3rCHp40S/prnFY
TACkRoLkBqftkva2uVxBAoIBAQDQK0hEZ3jVznmybNyvscdkYnJHFqJqjQgR3DKM
1RxcOpsLcEJZv5Xw9yze1QndCplnWsHsbOYI/Bz6Bnf60DRnbiZrftNEkabEgPkE
pEnZTCWm/ynTjhJy5y5ttnrqx2CHUpLoVnwqQKQqp3p/gjXQcp9NqX8/ieA4ae63
tPMpQERlA3ETHprZ26NkjIl35oO2Hl/vw80Inh26EHFlKZkzKRsCaqBLgIkDpbOe
vgziyBUCk3pmyKI62pPu4S3Xy7TaYtjUeZvwUI8u3hvE6v2Qjj9nS6qvTOGRg/hG
3DSBEqXUxMTYu+41zPyYZiSoUpFkReV9G/K3wO9b0Y+po+NFAoIBAQDCp4+uwo47
90S79J2wM4nEhtPvgg5Zvv+8a1Uedng+DKokmPdcqD9RSREcbuj2BOwS/phTePKh
0UFgy43B8DrTDNrYvZPTjPalxo8ks122+vzM+Y43le072wOQkHfVZP/Y1+lOOsVf
TjGrp82keg4w784w7OuJNg+i7+rwsOwBn6iavHbHi3c8IGXDsNe5+LEwTSXSyxiF
s/NFBYOxNDV1GVATTbyi5bEKLDtrD1GXRtCU4atGf9fwYSU08KMjrhRQLP+0sYwN
lGSpJnJc7M7CuikxT646+ENTZC1vZlp1bUwsX7sjk5kxq6fkf0LM0/7hLg0yPOFV
XTBeLPYJrRflAoIBABYbgqFBG+QY+XOpfAZsqvBORDSogrcuIx1CdVvfhhOFZdHh
Kiq93f6pQWqo1VNUPNZtHQsuxX9OxwUGitdoJSiW2h2wal9t2Hgl+kwz5mPdYmJJ
1vdQr0TkqFmed49XfTjh3Bgwlx8lnkmpX6kK+wwYIDLvPURSMC3NkjyQSwKmgJz5
sJiHN4rLeJ7FDhRdtr8wmp+r+6peoGmSNXi44jw8sVGgYUWjcOmiP2EsbdHnzdNo
NieURyZY8Dz+TRAN4jcPKFfoUldDNvGTRP+0tRkVAkbGEmprj8kUatmbqTfL8zCV
dRJPYwzzqB/HOT1nB2nOwoB251/8bW8i4k7xyMECggEANOd9sa3HIp0t3Te6s+0O
AI/0giAC7nlu4DL7y2+/dn3SsGeys0g3DUyijevG/TaRQwhXNjilGT3aWwh32sID
+uB/inDcAJ9LWfsBZKQrUFQe6UbaVFk3RRFdgqkBKMpujuz/x/dJNYH3FgRha9aQ
jNRgYgPCcGR1E3/JhulO+5H9LTETx2AsY/caMXma6DyjS9Fr+kKgw5YJBDVfeYYL
EWxzywtRvaRX3b/v1kUvk8H3Zr9+4YZVlkuQ5TaR4FyrwK66QM4QlpBCW4bLhl4G
Q/58u55AaF6ZTczoXGKhK1EtZtIN9rli5ZEV7JB6A1mK6ICvrXvGcoEFaFMn+7FD
0QKCAQB+zcumaZJ2f70TUc0cSpH5ObEdQzgLDgYk11ntogFWaXefY84R2UOAnVmT
TOAdl5CHY+iBwYVldGO9/+lSaeXzsFYeuvkoVPg8jnSoocc8H+QdgCjXwIPtalAJ
DmMo5OehmmbeZl/HYnESodqy+94DylxpoAwRwPh4m4H28lJObOkc+aP94Ij+i403
PW9HxSK4u1OTSAXUHrsHxYTHOoO0KIx7tDQtgToWJiXIF4OcvHpVrYhZlmX8jdZB
rzfGm7L2NbXOxMyRwzkiP2u3Jy2KMDjkzzrcj/baBASw/gvTBNg0Av+hxDLHAVKc
+gk211q750iboMg2OYLjyYqcwbXn
-----END PRIVATE KEY-----
